; Function Attrs: null_pointer_is_valid sspstrong uwtable
define noalias noundef ptr @wmem_array_new(ptr noundef %0, i64 noundef %1) local_unnamed_addr #0 {
  %3 = tail call noalias dereferenceable_or_null(40) ptr @wmem_alloc(ptr noundef %0, i64 noundef 40) #12
  store ptr %0, ptr %3, align 8
  %4 = getelementptr inbounds nuw i8, ptr %3, i64 16
  store i64 %1, ptr %4, align 8
  %5 = getelementptr inbounds nuw i8, ptr %3, i64 24
  store i32 0, ptr %5, align 8
  %6 = getelementptr inbounds nuw i8, ptr %3, i64 28
  store i32 1, ptr %6, align 4
  %7 = getelementptr inbounds nuw i8, ptr %3, i64 32
  store i8 0, ptr %7, align 8
  %8 = tail call noalias ptr @wmem_alloc(ptr noundef %0, i64 noundef %1) #12
  %9 = getelementptr inbounds nuw i8, ptr %3, i64 8
  store ptr %8, ptr %9, align 8
  ret ptr %3
}